target datalayout = "e-m:e-p270:32:32-p271:32:32-p272:64:64-i64:64-i128:128-f80:128-n8:16:32:64-S128"
target triple = "x86_64-unknown-linux-gnu"

%struct.IDEDMAOps = type { ptr, ptr, ptr, ptr, ptr, ptr, ptr, ptr, ptr, ptr }
%struct.QTailQLink = type { ptr, ptr }
%struct.AHCIState = type { ptr, ptr, %struct.AHCIControlRegs, %struct.MemoryRegion, %struct.MemoryRegion, i32, i32, i32, ptr, ptr }
%struct.AHCIControlRegs = type { i32, i32, i32, i32, i32 }
%struct.MemoryRegion = type { %struct.Object, i8, i8, i8, i8, i8, i8, i8, i8, i8, i8, ptr, ptr, ptr, ptr, ptr, ptr, i32, i128, i64, ptr, i64, i8, i8, i8, i8, i8, ptr, i64, i32, %union.anon, %union.anon.0, %union.anon.1, ptr, i32, ptr, ptr, i8 }
%struct.Object = type { ptr, ptr, ptr, i32, ptr }
%union.anon = type { %struct.QTailQLink }
%union.anon.0 = type { %struct.QTailQLink }
%union.anon.1 = type { %struct.QTailQLink }
%struct.AHCIDevice = type { %struct.IDEDMA, %struct.IDEBus, i32, i32, i32, %struct.AHCIPortRegs, ptr, ptr, ptr, ptr, i8, i32, i8, ptr, [32 x %struct.NCQTransferState], %struct.MemReentrancyGuard }
%struct.IDEDMA = type { ptr, %struct.QEMUIOVector, ptr }
%struct.QEMUIOVector = type { ptr, i32, %union.anon.3 }
%union.anon.3 = type { %struct.anon.4 }
%struct.anon.4 = type { i32, %struct.iovec }
%struct.iovec = type { ptr, i64 }
%struct.IDEBus = type { %struct.BusState, ptr, ptr, [2 x %struct.IDEState], ptr, i32, i32, ptr, i8, i8, ptr, i32, i8, i64, i32, %struct.PortioList, %struct.PortioList, ptr }
%struct.BusState = type { %struct.Object, ptr, ptr, ptr, i32, i8, i8, i32, %union.BusChildHead, %struct.BusStateEntry, %struct.ResettableState }
%union.BusChildHead = type { %struct.QTailQLink }
%struct.BusStateEntry = type { ptr, ptr }
%struct.ResettableState = type { i32, i8, i8 }
%struct.IDEState = type { ptr, i8, i32, i32, i32, i32, i32, i32, i32, i64, i32, i32, [512 x i8], i32, [21 x i8], [41 x i8], i64, i8, i8, i32, i8, i8, i8, i8, i8, i8, i8, i8, i8, i8, i8, i8, i8, ptr, [9 x i8], %struct.unreported_events, i8, i8, i8, i8, i8, i32, i32, i32, i32, i32, i32, %struct.BlockAcctCookie, ptr, %struct.QEMUIOVector, %struct.anon.6, i64, i32, %struct.QEMUSGList, i32, ptr, ptr, ptr, ptr, i32, i32, i32, i8, ptr, i32, i8, i32, ptr, i32, i32, i8, i8, i32, i8, ptr, i32 }
%struct.unreported_events = type { i8, i8 }
%struct.BlockAcctCookie = type { i64, i64, i32 }
%struct.anon.6 = type { ptr }
%struct.QEMUSGList = type { ptr, i32, i32, i64, ptr, ptr }
%struct.PortioList = type { ptr, ptr, ptr, i32, ptr, ptr, ptr, i8 }
%struct.AHCIPortRegs = type { i32, i32, i32, i32, i32, i32, i32, i32, i32, i32, i32, i32, i32, i32, i32, i32 }
%struct.NCQTransferState = type { ptr, ptr, ptr, %struct.QEMUSGList, %struct.BlockAcctCookie, i32, i64, i8, i8, i8, i8, i8 }
%struct.MemReentrancyGuard = type { i8 }

@ahci_dma_ops = internal constant %struct.IDEDMAOps { ptr @ahci_start_dma, ptr @ahci_pio_transfer, ptr @ahci_dma_prepare_buf, ptr @ahci_commit_buf, ptr @ahci_dma_rw_buf, ptr @ahci_restart, ptr @ahci_restart_dma, ptr null, ptr @ahci_cmd_done, ptr null }, align 8

; Function Attrs: nounwind sspstrong uwtable
define internal void @ahci_reg_init(ptr noundef %s) #0 {
entry:
  %s.addr = alloca ptr, align 8
  %i = alloca i32, align 4
  store ptr %s, ptr %s.addr, align 8
  %0 = load ptr, ptr %s.addr, align 8
  %ports = getelementptr inbounds %struct.AHCIState, ptr %0, i32 0, i32 7
  %1 = load i32, ptr %ports, align 8
  %sub = sub i32 %1, 1
  %or = or i32 %sub, 7936
  %or1 = or i32 %or, 1048576
  %or2 = or i32 %or1, 1073741824
  %or3 = or i32 %or2, 262144
  %or4 = or i32 %or3, -2147483648
  %2 = load ptr, ptr %s.addr, align 8
  %control_regs = getelementptr inbounds %struct.AHCIState, ptr %2, i32 0, i32 2
  %cap = getelementptr inbounds %struct.AHCIControlRegs, ptr %control_regs, i32 0, i32 0
  store i32 %or4, ptr %cap, align 16
  %3 = load ptr, ptr %s.addr, align 8
  %ports5 = getelementptr inbounds %struct.AHCIState, ptr %3, i32 0, i32 7
  %4 = load i32, ptr %ports5, align 8
  %shl = shl i32 1, %4
  %sub6 = sub i32 %shl, 1
  %5 = load ptr, ptr %s.addr, align 8
  %control_regs7 = getelementptr inbounds %struct.AHCIState, ptr %5, i32 0, i32 2
  %impl = getelementptr inbounds %struct.AHCIControlRegs, ptr %control_regs7, i32 0, i32 3
  store i32 %sub6, ptr %impl, align 4
  %6 = load ptr, ptr %s.addr, align 8
  %control_regs8 = getelementptr inbounds %struct.AHCIState, ptr %6, i32 0, i32 2
  %version = getelementptr inbounds %struct.AHCIControlRegs, ptr %control_regs8, i32 0, i32 4
  store i32 65536, ptr %version, align 16
  store i32 0, ptr %i, align 4
  br label %for.cond

for.cond:                                         ; preds = %for.inc, %entry
  %7 = load i32, ptr %i, align 4
  %8 = load ptr, ptr %s.addr, align 8
  %ports9 = getelementptr inbounds %struct.AHCIState, ptr %8, i32 0, i32 7
  %9 = load i32, ptr %ports9, align 8
  %cmp = icmp slt i32 %7, %9
  br i1 %cmp, label %for.body, label %for.end

for.body:                                         ; preds = %for.cond
  %10 = load ptr, ptr %s.addr, align 8
  %dev = getelementptr inbounds %struct.AHCIState, ptr %10, i32 0, i32 1
  %11 = load ptr, ptr %dev, align 8
  %12 = load i32, ptr %i, align 4
  %idxprom = sext i32 %12 to i64
  %arrayidx = getelementptr %struct.AHCIDevice, ptr %11, i64 %idxprom
  %port_state = getelementptr inbounds %struct.AHCIDevice, ptr %arrayidx, i32 0, i32 3
  store i32 0, ptr %port_state, align 4
  br label %for.inc

for.inc:                                          ; preds = %for.body
  %13 = load i32, ptr %i, align 4
  %inc = add i32 %13, 1
  store i32 %inc, ptr %i, align 4
  br label %for.cond, !llvm.loop !7

for.end:                                          ; preds = %for.cond
  ret void
}

; Function Attrs: nounwind sspstrong uwtable
define dso_local void @ahci_realize(ptr noundef %s, ptr noundef %qdev, ptr noundef %as, i32 noundef %ports) #0 {
entry:
  %s.addr = alloca ptr, align 8
  %qdev.addr = alloca ptr, align 8
  %as.addr = alloca ptr, align 8
  %ports.addr = alloca i32, align 4
  %irqs = alloca ptr, align 8
  %i = alloca i32, align 4
  %ad = alloca ptr, align 8
  store ptr %s, ptr %s.addr, align 8
  store ptr %qdev, ptr %qdev.addr, align 8
  store ptr %as, ptr %as.addr, align 8
  store i32 %ports, ptr %ports.addr, align 4
  %0 = load ptr, ptr %as.addr, align 8
  %1 = load ptr, ptr %s.addr, align 8
  %as1 = getelementptr inbounds %struct.AHCIState, ptr %1, i32 0, i32 9
  store ptr %0, ptr %as1, align 8
  %2 = load i32, ptr %ports.addr, align 4
  %3 = load ptr, ptr %s.addr, align 8
  %ports2 = getelementptr inbounds %struct.AHCIState, ptr %3, i32 0, i32 7
  store i32 %2, ptr %ports2, align 8
  %4 = load i32, ptr %ports.addr, align 4
  %conv = sext i32 %4 to i64
  %call = call noalias ptr @g_malloc0_n(i64 noundef %conv, i64 noundef 6088) #7
  %5 = load ptr, ptr %s.addr, align 8
  %dev = getelementptr inbounds %struct.AHCIState, ptr %5, i32 0, i32 1
  store ptr %call, ptr %dev, align 8
  %6 = load ptr, ptr %s.addr, align 8
  call void @ahci_reg_init(ptr noundef %6)
  %7 = load ptr, ptr %s.addr, align 8
  %8 = load ptr, ptr %s.addr, align 8
  %ports3 = getelementptr inbounds %struct.AHCIState, ptr %8, i32 0, i32 7
  %9 = load i32, ptr %ports3, align 8
  %call4 = call ptr @qemu_allocate_irqs(ptr noundef @ahci_irq_set, ptr noundef %7, i32 noundef %9)
  store ptr %call4, ptr %irqs, align 8
  store i32 0, ptr %i, align 4
  br label %for.cond

for.cond:                                         ; preds = %for.inc, %entry
  %10 = load i32, ptr %i, align 4
  %11 = load ptr, ptr %s.addr, align 8
  %ports5 = getelementptr inbounds %struct.AHCIState, ptr %11, i32 0, i32 7
  %12 = load i32, ptr %ports5, align 8
  %cmp = icmp slt i32 %10, %12
  br i1 %cmp, label %for.body, label %for.end

for.body:                                         ; preds = %for.cond
  %13 = load ptr, ptr %s.addr, align 8
  %dev7 = getelementptr inbounds %struct.AHCIState, ptr %13, i32 0, i32 1
  %14 = load ptr, ptr %dev7, align 8
  %15 = load i32, ptr %i, align 4
  %idxprom = sext i32 %15 to i64
  %arrayidx = getelementptr %struct.AHCIDevice, ptr %14, i64 %idxprom
  store ptr %arrayidx, ptr %ad, align 8
  %16 = load ptr, ptr %ad, align 8
  %port = getelementptr inbounds %struct.AHCIDevice, ptr %16, i32 0, i32 1
  %17 = load ptr, ptr %qdev.addr, align 8
  %18 = load i32, ptr %i, align 4
  call void @ide_bus_init(ptr noundef %port, i64 noundef 2304, ptr noundef %17, i32 noundef %18, i32 noundef 1)
  %19 = load ptr, ptr %ad, align 8
  %port8 = getelementptr inbounds %struct.AHCIDevice, ptr %19, i32 0, i32 1
  %20 = load ptr, ptr %irqs, align 8
  %21 = load i32, ptr %i, align 4
  %idxprom9 = sext i32 %21 to i64
  %arrayidx10 = getelementptr ptr, ptr %20, i64 %idxprom9
  %22 = load ptr, ptr %arrayidx10, align 8
  call void @ide_bus_init_output_irq(ptr noundef %port8, ptr noundef %22)
  %23 = load ptr, ptr %s.addr, align 8
  %24 = load ptr, ptr %ad, align 8
  %hba = getelementptr inbounds %struct.AHCIDevice, ptr %24, i32 0, i32 6
  store ptr %23, ptr %hba, align 8
  %25 = load i32, ptr %i, align 4
  %26 = load ptr, ptr %ad, align 8
  %port_no = getelementptr inbounds %struct.AHCIDevice, ptr %26, i32 0, i32 2
  store i32 %25, ptr %port_no, align 8
  %27 = load ptr, ptr %ad, align 8
  %dma = getelementptr inbounds %struct.AHCIDevice, ptr %27, i32 0, i32 0
  %28 = load ptr, ptr %ad, align 8
  %port11 = getelementptr inbounds %struct.AHCIDevice, ptr %28, i32 0, i32 1
  %dma12 = getelementptr inbounds %struct.IDEBus, ptr %port11, i32 0, i32 7
  store ptr %dma, ptr %dma12, align 8
  %29 = load ptr, ptr %ad, align 8
  %port13 = getelementptr inbounds %struct.AHCIDevice, ptr %29, i32 0, i32 1
  %dma14 = getelementptr inbounds %struct.IDEBus, ptr %port13, i32 0, i32 7
  %30 = load ptr, ptr %dma14, align 8
  %ops = getelementptr inbounds %struct.IDEDMA, ptr %30, i32 0, i32 0
  store ptr @ahci_dma_ops, ptr %ops, align 8
  %31 = load ptr, ptr %ad, align 8
  %port15 = getelementptr inbounds %struct.AHCIDevice, ptr %31, i32 0, i32 1
  call void @ide_bus_register_restart_cb(ptr noundef %port15)
  br label %for.inc

for.inc:                                          ; preds = %for.body
  %32 = load i32, ptr %i, align 4
  %inc = add i32 %32, 1
  store i32 %inc, ptr %i, align 4
  br label %for.cond, !llvm.loop !5

for.end:                                          ; preds = %for.cond
  %33 = load ptr, ptr %irqs, align 8
  call void @g_free(ptr noundef %33)
  ret void
}