; Function Attrs: nounwind sspstrong uwtable
define dso_local void @ahci_realize(ptr noundef initializes((8, 20), (28, 36), (600, 604), (616, 624)) %s, ptr noundef %qdev, ptr noundef %as, i32 noundef %ports) local_unnamed_addr #0 {
entry:
  %as1 = getelementptr inbounds nuw i8, ptr %s, i64 616
  store ptr %as, ptr %as1, align 8
  %ports2 = getelementptr inbounds nuw i8, ptr %s, i64 600
  store i32 %ports, ptr %ports2, align 8
  %conv = sext i32 %ports to i64
  %call = tail call noalias ptr @g_malloc0_n(i64 noundef %conv, i64 noundef 6088) #13
  %dev = getelementptr inbounds nuw i8, ptr %s, i64 8
  store ptr %call, ptr %dev, align 8
  %0 = load i32, ptr %ports2, align 8
  %sub.i = add i32 %0, 1073741823
  %or4.i = or i32 %sub.i, -1072423168
  %control_regs.i = getelementptr inbounds nuw i8, ptr %s, i64 16
  store i32 %or4.i, ptr %control_regs.i, align 16
  %notmask.i = shl nsw i32 -1, %0
  %sub6.i = xor i32 %notmask.i, -1
  %impl.i = getelementptr inbounds nuw i8, ptr %s, i64 28
  store i32 %sub6.i, ptr %impl.i, align 4
  %version.i = getelementptr inbounds nuw i8, ptr %s, i64 32
  store i32 65536, ptr %version.i, align 16
  %cmp9.i = icmp sgt i32 %0, 0
  br i1 %cmp9.i, label %for.body.i, label %ahci_reg_init.exit

for.body.i:                                       ; preds = %entry, %for.body.i
  %indvars.iv.i = phi i64 [ %indvars.iv.next.i, %for.body.i ], [ 0, %entry ]
  %1 = load ptr, ptr %dev, align 8
  %port_state.i = getelementptr %struct.AHCIDevice, ptr %1, i64 %indvars.iv.i, i32 3
  store i32 0, ptr %port_state.i, align 4
  %indvars.iv.next.i = add nuw nsw i64 %indvars.iv.i, 1
  %2 = load i32, ptr %ports2, align 8
  %3 = sext i32 %2 to i64
  %cmp.i = icmp slt i64 %indvars.iv.next.i, %3
  br i1 %cmp.i, label %for.body.i, label %ahci_reg_init.exit, !llvm.loop !5

ahci_reg_init.exit:                               ; preds = %for.body.i, %entry
  %4 = phi i32 [ %0, %entry ], [ %2, %for.body.i ]
  %call4 = tail call ptr @qemu_allocate_irqs(ptr noundef nonnull @ahci_irq_set, ptr noundef nonnull %s, i32 noundef %4) #12
  %5 = load i32, ptr %ports2, align 8
  %cmp23 = icmp sgt i32 %5, 0
  br i1 %cmp23, label %for.body, label %for.end

for.body:                                         ; preds = %ahci_reg_init.exit, %for.body
  %indvars.iv = phi i64 [ %indvars.iv.next, %for.body ], [ 0, %ahci_reg_init.exit ]
  %6 = load ptr, ptr %dev, align 8
  %arrayidx = getelementptr %struct.AHCIDevice, ptr %6, i64 %indvars.iv
  %port = getelementptr inbounds nuw i8, ptr %arrayidx, i64 56
  %7 = trunc nuw nsw i64 %indvars.iv to i32
  tail call void @ide_bus_init(ptr noundef nonnull %port, i64 noundef 2304, ptr noundef %qdev, i32 noundef %7, i32 noundef 1) #12
  %arrayidx10 = getelementptr ptr, ptr %call4, i64 %indvars.iv
  %8 = load ptr, ptr %arrayidx10, align 8
  tail call void @ide_bus_init_output_irq(ptr noundef nonnull %port, ptr noundef %8) #12
  %hba = getelementptr inbounds nuw i8, ptr %arrayidx, i64 2440
  store ptr %s, ptr %hba, align 8
  %port_no = getelementptr inbounds nuw i8, ptr %arrayidx, i64 2360
  store i32 %7, ptr %port_no, align 8
  %dma12 = getelementptr inbounds nuw i8, ptr %arrayidx, i64 2176
  store ptr %arrayidx, ptr %dma12, align 8
  store ptr @ahci_dma_ops, ptr %arrayidx, align 8
  tail call void @ide_bus_register_restart_cb(ptr noundef nonnull %port) #12
  %indvars.iv.next = add nuw nsw i64 %indvars.iv, 1
  %9 = load i32, ptr %ports2, align 8
  %10 = sext i32 %9 to i64
  %cmp = icmp slt i64 %indvars.iv.next, %10
  br i1 %cmp, label %for.body, label %for.end, !llvm.loop !7

for.end:                                          ; preds = %for.body, %ahci_reg_init.exit
  tail call void @g_free(ptr noundef %call4) #12
  ret void
}